target datalayout = "e-m:e-p270:32:32-p271:32:32-p272:64:64-i64:64-i128:128-f80:128-n8:16:32:64-S128"
target triple = "x86_64-pc-linux-gnu"

%struct.DeviceInformation = type <{ i32, i32, i32, [4 x i8], %"class.gmx::FixedCapacityVector", i32, %"class.std::optional", [3 x i8] }>
%"class.gmx::FixedCapacityVector" = type { %"struct.std::array", i64 }
%"struct.std::array" = type { [10 x i32] }
%"class.std::optional" = type { %"struct.std::_Optional_base" }
%"struct.std::_Optional_base" = type { %"struct.std::_Optional_payload" }
%"struct.std::_Optional_payload" = type { %"struct.std::_Optional_payload_base" }
%"struct.std::_Optional_payload_base" = type { %"union.std::_Optional_payload_base<std::array<std::byte, 16>>::_Storage", i8 }
%"union.std::_Optional_payload_base<std::array<std::byte, 16>>::_Storage" = type { %"struct.std::array.0" }
%"struct.std::array.0" = type { [16 x i8] }
%"class.std::unique_ptr" = type { %"struct.std::__uniq_ptr_data" }
%"struct.std::__uniq_ptr_data" = type { %"class.std::__uniq_ptr_impl" }
%"class.std::__uniq_ptr_impl" = type { %"class.std::tuple" }
%"class.std::tuple" = type { %"struct.std::_Tuple_impl" }
%"struct.std::_Tuple_impl" = type { %"struct.std::_Head_base.7" }
%"struct.std::_Head_base.7" = type { ptr }
%"class.gmx::ArrayRef" = type { %"struct.gmx::ArrayRefIter", %"struct.gmx::ArrayRefIter" }
%"struct.gmx::ArrayRefIter" = type { ptr }

; Function Attrs: mustprogress nounwind uwtable
define linkonce_odr noundef nonnull align 8 dereferenceable(8) ptr @_ZNSt10_Head_baseILm0EP17DeviceInformationLb0EE7_M_headERKS2_(ptr noundef nonnull align 8 dereferenceable(8) %0) #1 comdat align 2 {
  %2 = alloca ptr, align 8
  store ptr %0, ptr %2, align 8, !tbaa !72
  %3 = load ptr, ptr %2, align 8, !tbaa !72
  %4 = getelementptr inbounds nuw %"struct.std::_Head_base.7", ptr %3, i32 0, i32 0
  ret ptr %4
}

; Function Attrs: mustprogress nounwind uwtable
define linkonce_odr noundef nonnull align 8 dereferenceable(8) ptr @_ZNSt11_Tuple_implILm0EJP17DeviceInformationSt14default_deleteIS0_EEE7_M_headERKS4_(ptr noundef nonnull align 8 dereferenceable(8) %0) #1 comdat align 2 {
  %2 = alloca ptr, align 8
  store ptr %0, ptr %2, align 8, !tbaa !70
  %3 = load ptr, ptr %2, align 8, !tbaa !70
  %4 = call noundef nonnull align 8 dereferenceable(8) ptr @_ZNSt10_Head_baseILm0EP17DeviceInformationLb0EE7_M_headERKS2_(ptr noundef nonnull align 8 dereferenceable(8) %3) #20
  ret ptr %4
}

; Function Attrs: mustprogress nounwind uwtable
define linkonce_odr noundef nonnull align 8 dereferenceable(8) ptr @_ZSt12__get_helperILm0EP17DeviceInformationJSt14default_deleteIS0_EEERKT0_RKSt11_Tuple_implIXT_EJS4_DpT1_EE(ptr noundef nonnull align 8 dereferenceable(8) %0) #1 comdat {
  %2 = alloca ptr, align 8
  store ptr %0, ptr %2, align 8, !tbaa !70
  %3 = load ptr, ptr %2, align 8, !tbaa !70
  %4 = call noundef nonnull align 8 dereferenceable(8) ptr @_ZNSt11_Tuple_implILm0EJP17DeviceInformationSt14default_deleteIS0_EEE7_M_headERKS4_(ptr noundef nonnull align 8 dereferenceable(8) %3) #20
  ret ptr %4
}

; Function Attrs: mustprogress nounwind uwtable
define linkonce_odr noundef nonnull align 8 dereferenceable(8) ptr @_ZSt3getILm0EJP17DeviceInformationSt14default_deleteIS0_EEERKNSt13tuple_elementIXT_ESt5tupleIJDpT0_EEE4typeERKS8_(ptr noundef nonnull align 8 dereferenceable(8) %0) #1 comdat {
  %2 = alloca ptr, align 8
  store ptr %0, ptr %2, align 8, !tbaa !68
  %3 = load ptr, ptr %2, align 8, !tbaa !68
  %4 = call noundef nonnull align 8 dereferenceable(8) ptr @_ZSt12__get_helperILm0EP17DeviceInformationJSt14default_deleteIS0_EEERKT0_RKSt11_Tuple_implIXT_EJS4_DpT1_EE(ptr noundef nonnull align 8 dereferenceable(8) %3) #20
  ret ptr %4
}

; Function Attrs: mustprogress nounwind uwtable
define linkonce_odr noundef i64 @_ZNK3gmx12ArrayRefIterIKSt10unique_ptrI17DeviceInformationSt14default_deleteIS2_EEEmiES7_(ptr noundef nonnull align 8 dereferenceable(8) %0, ptr %1) #1 comdat align 2 {
  %3 = alloca %"struct.gmx::ArrayRefIter", align 8
  %4 = alloca ptr, align 8
  %5 = getelementptr inbounds nuw %"struct.gmx::ArrayRefIter", ptr %3, i32 0, i32 0
  store ptr %1, ptr %5, align 8
  store ptr %0, ptr %4, align 8, !tbaa !92
  %6 = load ptr, ptr %4, align 8
  %7 = getelementptr inbounds nuw %"struct.gmx::ArrayRefIter", ptr %6, i32 0, i32 0
  %8 = load ptr, ptr %7, align 8, !tbaa !94
  %9 = getelementptr inbounds nuw %"struct.gmx::ArrayRefIter", ptr %3, i32 0, i32 0
  %10 = load ptr, ptr %9, align 8, !tbaa !94
  %11 = ptrtoint ptr %8 to i64
  %12 = ptrtoint ptr %10 to i64
  %13 = sub i64 %11, %12
  %14 = sdiv exact i64 %13, 8
  ret i64 %14
}

; Function Attrs: mustprogress nounwind uwtable
define linkonce_odr noundef ptr @_ZNKSt15__uniq_ptr_implI17DeviceInformationSt14default_deleteIS0_EE6_M_ptrEv(ptr noundef nonnull align 8 dereferenceable(8) %0) #1 comdat align 2 {
  %2 = alloca ptr, align 8
  store ptr %0, ptr %2, align 8, !tbaa !66
  %3 = load ptr, ptr %2, align 8
  %4 = getelementptr inbounds nuw %"class.std::__uniq_ptr_impl", ptr %3, i32 0, i32 0
  %5 = call noundef nonnull align 8 dereferenceable(8) ptr @_ZSt3getILm0EJP17DeviceInformationSt14default_deleteIS0_EEERKNSt13tuple_elementIXT_ESt5tupleIJDpT0_EEE4typeERKS8_(ptr noundef nonnull align 8 dereferenceable(8) %4) #20
  %6 = load ptr, ptr %5, align 8, !tbaa !11
  ret ptr %6
}

; Function Attrs: mustprogress nounwind uwtable
define linkonce_odr noundef i64 @_ZN3gmx5boost14stl_interfaces6detail11common_diffINS_12ArrayRefIterIKSt10unique_ptrI17DeviceInformationSt14default_deleteIS6_EEEESB_EEDTmiscNSt11conditionalIXsr3std14is_convertibleIT_T0_EE5valueESE_SD_E4typeEfp_scSG_fp0_ESD_SE_(ptr %0, ptr %1) #1 comdat {
  %3 = alloca %"struct.gmx::ArrayRefIter", align 8
  %4 = alloca %"struct.gmx::ArrayRefIter", align 8
  %5 = alloca %"struct.gmx::ArrayRefIter", align 8
  %6 = alloca %"struct.gmx::ArrayRefIter", align 8
  %7 = getelementptr inbounds nuw %"struct.gmx::ArrayRefIter", ptr %3, i32 0, i32 0
  store ptr %0, ptr %7, align 8
  %8 = getelementptr inbounds nuw %"struct.gmx::ArrayRefIter", ptr %4, i32 0, i32 0
  store ptr %1, ptr %8, align 8
  call void @llvm.lifetime.start.p0(i64 8, ptr %5) #20
  call void @llvm.memcpy.p0.p0.i64(ptr align 8 %5, ptr align 8 %3, i64 8, i1 false)
  call void @llvm.memcpy.p0.p0.i64(ptr align 8 %6, ptr align 8 %4, i64 8, i1 false)
  %9 = getelementptr inbounds nuw %"struct.gmx::ArrayRefIter", ptr %6, i32 0, i32 0
  %10 = load ptr, ptr %9, align 8
  %11 = call noundef i64 @_ZNK3gmx12ArrayRefIterIKSt10unique_ptrI17DeviceInformationSt14default_deleteIS2_EEEmiES7_(ptr noundef nonnull align 8 dereferenceable(8) %5, ptr %10) #20
  call void @llvm.lifetime.end.p0(i64 8, ptr %5) #20
  ret i64 %11
}

; Function Attrs: mustprogress nounwind uwtable
define linkonce_odr noundef nonnull align 8 dereferenceable(8) ptr @_ZN3gmx12ArrayRefIterIKSt10unique_ptrI17DeviceInformationSt14default_deleteIS2_EEEpLEl(ptr noundef nonnull align 8 dereferenceable(8) %0, i64 noundef %1) #1 comdat align 2 {
  %3 = alloca ptr, align 8
  %4 = alloca i64, align 8
  store ptr %0, ptr %3, align 8, !tbaa !92
  store i64 %1, ptr %4, align 8, !tbaa !34
  %5 = load ptr, ptr %3, align 8
  %6 = load i64, ptr %4, align 8, !tbaa !34
  %7 = getelementptr inbounds nuw %"struct.gmx::ArrayRefIter", ptr %5, i32 0, i32 0
  %8 = load ptr, ptr %7, align 8, !tbaa !94
  %9 = getelementptr inbounds %"class.std::unique_ptr", ptr %8, i64 %6
  store ptr %9, ptr %7, align 8, !tbaa !94
  ret ptr %5
}

; Function Attrs: mustprogress nounwind uwtable
define linkonce_odr noundef nonnull align 8 dereferenceable(8) ptr @_ZN3gmx5boost14stl_interfaces2v118iterator_interfaceINS_12ArrayRefIterIKSt10unique_ptrI17DeviceInformationSt14default_deleteIS6_EEEESt26random_access_iterator_tagSA_RSA_PSA_lvE7derivedEv(ptr noundef nonnull align 1 dereferenceable(1) %0) #1 comdat align 2 {
  %2 = alloca ptr, align 8
  store ptr %0, ptr %2, align 8, !tbaa !96
  %3 = load ptr, ptr %2, align 8
  ret ptr %3
}

; Function Attrs: mustprogress nounwind uwtable
define linkonce_odr noundef ptr @_ZNKSt10unique_ptrI17DeviceInformationSt14default_deleteIS0_EE3getEv(ptr noundef nonnull align 8 dereferenceable(8) %0) #1 comdat align 2 {
  %2 = alloca ptr, align 8
  store ptr %0, ptr %2, align 8, !tbaa !29
  %3 = load ptr, ptr %2, align 8
  %4 = getelementptr inbounds nuw %"class.std::unique_ptr", ptr %3, i32 0, i32 0
  %5 = call noundef ptr @_ZNKSt15__uniq_ptr_implI17DeviceInformationSt14default_deleteIS0_EE6_M_ptrEv(ptr noundef nonnull align 8 dereferenceable(8) %4) #20
  ret ptr %5
}

; Function Attrs: mustprogress nounwind uwtable
define linkonce_odr noundef zeroext i1 @_ZN3gmx5boost14stl_interfaces2v1eqINS_12ArrayRefIterIKSt10unique_ptrI17DeviceInformationSt14default_deleteIS6_EEEESB_vEEDTcmclsr6v1_dtlE16derived_iteratorfp_Eeqclsr6detailE11common_difffp_fp0_ELi0EET_T0_(ptr %0, ptr %1) #1 comdat {
  %3 = alloca %"struct.gmx::ArrayRefIter", align 8
  %4 = alloca %"struct.gmx::ArrayRefIter", align 8
  %5 = alloca %"struct.gmx::ArrayRefIter", align 8
  %6 = alloca %"struct.gmx::ArrayRefIter", align 8
  %7 = getelementptr inbounds nuw %"struct.gmx::ArrayRefIter", ptr %3, i32 0, i32 0
  store ptr %0, ptr %7, align 8
  %8 = getelementptr inbounds nuw %"struct.gmx::ArrayRefIter", ptr %4, i32 0, i32 0
  store ptr %1, ptr %8, align 8
  call void @llvm.memcpy.p0.p0.i64(ptr align 8 %5, ptr align 8 %3, i64 8, i1 false)
  call void @llvm.memcpy.p0.p0.i64(ptr align 8 %6, ptr align 8 %4, i64 8, i1 false)
  %9 = getelementptr inbounds nuw %"struct.gmx::ArrayRefIter", ptr %5, i32 0, i32 0
  %10 = load ptr, ptr %9, align 8
  %11 = getelementptr inbounds nuw %"struct.gmx::ArrayRefIter", ptr %6, i32 0, i32 0
  %12 = load ptr, ptr %11, align 8
  %13 = call noundef i64 @_ZN3gmx5boost14stl_interfaces6detail11common_diffINS_12ArrayRefIterIKSt10unique_ptrI17DeviceInformationSt14default_deleteIS6_EEEESB_EEDTmiscNSt11conditionalIXsr3std14is_convertibleIT_T0_EE5valueESE_SD_E4typeEfp_scSG_fp0_ESD_SE_(ptr %10, ptr %12) #20
  %14 = icmp eq i64 %13, 0
  ret i1 %14
}

; Function Attrs: mustprogress nounwind uwtable
define linkonce_odr noundef nonnull align 8 dereferenceable(8) ptr @_ZN3gmx5boost14stl_interfaces2v118iterator_interfaceINS_12ArrayRefIterIKSt10unique_ptrI17DeviceInformationSt14default_deleteIS6_EEEESt26random_access_iterator_tagSA_RSA_PSA_lvEppISB_EEDTcmpLclsr3stdE7declvalIRT_EEcvlLi1Eclsr3stdE7declvalISI_EEEv(ptr noundef nonnull align 1 dereferenceable(1) %0) #1 comdat align 2 {
  %2 = alloca ptr, align 8
  store ptr %0, ptr %2, align 8, !tbaa !96
  %3 = load ptr, ptr %2, align 8
  %4 = call noundef nonnull align 8 dereferenceable(8) ptr @_ZN3gmx5boost14stl_interfaces2v118iterator_interfaceINS_12ArrayRefIterIKSt10unique_ptrI17DeviceInformationSt14default_deleteIS6_EEEESt26random_access_iterator_tagSA_RSA_PSA_lvE7derivedEv(ptr noundef nonnull align 1 dereferenceable(1) %3) #20
  %5 = call noundef nonnull align 8 dereferenceable(8) ptr @_ZN3gmx12ArrayRefIterIKSt10unique_ptrI17DeviceInformationSt14default_deleteIS2_EEEpLEl(ptr noundef nonnull align 8 dereferenceable(8) %4, i64 noundef 1) #20
  %6 = call noundef nonnull align 8 dereferenceable(8) ptr @_ZN3gmx5boost14stl_interfaces2v118iterator_interfaceINS_12ArrayRefIterIKSt10unique_ptrI17DeviceInformationSt14default_deleteIS6_EEEESt26random_access_iterator_tagSA_RSA_PSA_lvE7derivedEv(ptr noundef nonnull align 1 dereferenceable(1) %3) #20
  ret ptr %6
}

; Function Attrs: inlinehint mustprogress nounwind uwtable
define linkonce_odr noundef nonnull align 4 dereferenceable(4) ptr @_ZSt3minIN3gmx17GpuAwareMpiStatusEERKT_S4_S4_(ptr noundef nonnull align 4 dereferenceable(4) %0, ptr noundef nonnull align 4 dereferenceable(4) %1) #5 comdat {
  %3 = alloca ptr, align 8
  %4 = alloca ptr, align 8
  %5 = alloca ptr, align 8
  store ptr %0, ptr %4, align 8, !tbaa !60
  store ptr %1, ptr %5, align 8, !tbaa !60
  %6 = load ptr, ptr %5, align 8, !tbaa !60
  %7 = load i32, ptr %6, align 4, !tbaa !231
  %8 = load ptr, ptr %4, align 8, !tbaa !60
  %9 = load i32, ptr %8, align 4, !tbaa !231
  %10 = icmp slt i32 %7, %9
  br i1 %10, label %11, label %13

11:                                               ; preds = %2
  %12 = load ptr, ptr %5, align 8, !tbaa !60
  store ptr %12, ptr %3, align 8
  br label %15

13:                                               ; preds = %2
  %14 = load ptr, ptr %4, align 8, !tbaa !60
  store ptr %14, ptr %3, align 8
  br label %15

15:                                               ; preds = %13, %11
  %16 = load ptr, ptr %3, align 8
  ret ptr %16
}

; Function Attrs: mustprogress nounwind uwtable
define linkonce_odr noundef ptr @_ZNKSt10unique_ptrI17DeviceInformationSt14default_deleteIS0_EEptEv(ptr noundef nonnull align 8 dereferenceable(8) %0) #1 comdat align 2 {
  %2 = alloca ptr, align 8
  store ptr %0, ptr %2, align 8, !tbaa !29
  %3 = load ptr, ptr %2, align 8
  %4 = call noundef ptr @_ZNKSt10unique_ptrI17DeviceInformationSt14default_deleteIS0_EE3getEv(ptr noundef nonnull align 8 dereferenceable(8) %3) #20
  ret ptr %4
}

; Function Attrs: mustprogress nounwind uwtable
define linkonce_odr noundef nonnull align 8 dereferenceable(8) ptr @_ZNK3gmx12ArrayRefIterIKSt10unique_ptrI17DeviceInformationSt14default_deleteIS2_EEEdeEv(ptr noundef nonnull align 8 dereferenceable(8) %0) #1 comdat align 2 {
  %2 = alloca ptr, align 8
  store ptr %0, ptr %2, align 8, !tbaa !92
  %3 = load ptr, ptr %2, align 8
  %4 = getelementptr inbounds nuw %"struct.gmx::ArrayRefIter", ptr %3, i32 0, i32 0
  %5 = load ptr, ptr %4, align 8, !tbaa !94
  ret ptr %5
}

; Function Attrs: mustprogress nounwind uwtable
define linkonce_odr noundef zeroext i1 @_ZN3gmx5boost14stl_interfaces2v1neINS_12ArrayRefIterIKSt10unique_ptrI17DeviceInformationSt14default_deleteIS6_EEEESB_EEDTcmclsr6v1_dtlE16derived_iteratorfp_Enteqfp_fp0_ET_T0_(ptr %0, ptr %1) #1 comdat {
  %3 = alloca %"struct.gmx::ArrayRefIter", align 8
  %4 = alloca %"struct.gmx::ArrayRefIter", align 8
  %5 = alloca %"struct.gmx::ArrayRefIter", align 8
  %6 = alloca %"struct.gmx::ArrayRefIter", align 8
  %7 = getelementptr inbounds nuw %"struct.gmx::ArrayRefIter", ptr %3, i32 0, i32 0
  store ptr %0, ptr %7, align 8
  %8 = getelementptr inbounds nuw %"struct.gmx::ArrayRefIter", ptr %4, i32 0, i32 0
  store ptr %1, ptr %8, align 8
  call void @llvm.memcpy.p0.p0.i64(ptr align 8 %5, ptr align 8 %3, i64 8, i1 false)
  call void @llvm.memcpy.p0.p0.i64(ptr align 8 %6, ptr align 8 %4, i64 8, i1 false)
  %9 = getelementptr inbounds nuw %"struct.gmx::ArrayRefIter", ptr %5, i32 0, i32 0
  %10 = load ptr, ptr %9, align 8
  %11 = getelementptr inbounds nuw %"struct.gmx::ArrayRefIter", ptr %6, i32 0, i32 0
  %12 = load ptr, ptr %11, align 8
  %13 = call noundef zeroext i1 @_ZN3gmx5boost14stl_interfaces2v1eqINS_12ArrayRefIterIKSt10unique_ptrI17DeviceInformationSt14default_deleteIS6_EEEESB_vEEDTcmclsr6v1_dtlE16derived_iteratorfp_Eeqclsr6detailE11common_difffp_fp0_ELi0EET_T0_(ptr %10, ptr %12) #20
  %14 = xor i1 %13, true
  ret i1 %14
}

; Function Attrs: mustprogress nounwind uwtable
define linkonce_odr ptr @_ZNK3gmx8ArrayRefIKSt10unique_ptrI17DeviceInformationSt14default_deleteIS2_EEE3endEv(ptr noundef nonnull align 8 dereferenceable(16) %0) #1 comdat align 2 {
  %2 = alloca %"struct.gmx::ArrayRefIter", align 8
  %3 = alloca ptr, align 8
  store ptr %0, ptr %3, align 8, !tbaa !82
  %4 = load ptr, ptr %3, align 8
  %5 = getelementptr inbounds nuw %"class.gmx::ArrayRef", ptr %4, i32 0, i32 1
  call void @llvm.memcpy.p0.p0.i64(ptr align 8 %2, ptr align 8 %5, i64 8, i1 false)
  %6 = getelementptr inbounds nuw %"struct.gmx::ArrayRefIter", ptr %2, i32 0, i32 0
  %7 = load ptr, ptr %6, align 8
  ret ptr %7
}

; Function Attrs: mustprogress nounwind uwtable
define linkonce_odr ptr @_ZNK3gmx8ArrayRefIKSt10unique_ptrI17DeviceInformationSt14default_deleteIS2_EEE5beginEv(ptr noundef nonnull align 8 dereferenceable(16) %0) #1 comdat align 2 {
  %2 = alloca %"struct.gmx::ArrayRefIter", align 8
  %3 = alloca ptr, align 8
  store ptr %0, ptr %3, align 8, !tbaa !82
  %4 = load ptr, ptr %3, align 8
  %5 = getelementptr inbounds nuw %"class.gmx::ArrayRef", ptr %4, i32 0, i32 0
  call void @llvm.memcpy.p0.p0.i64(ptr align 8 %2, ptr align 8 %5, i64 8, i1 false)
  %6 = getelementptr inbounds nuw %"struct.gmx::ArrayRefIter", ptr %2, i32 0, i32 0
  %7 = load ptr, ptr %6, align 8
  ret ptr %7
}

; Function Attrs: mustprogress uwtable
define noundef i32 @_Z36getMinimalSupportedGpuAwareMpiStatusN3gmx8ArrayRefIKSt10unique_ptrI17DeviceInformationSt14default_deleteIS2_EEEE(ptr %0, ptr %1) #0 {
  %3 = alloca %"class.gmx::ArrayRef", align 8
  %4 = alloca i32, align 4
  %5 = alloca i8, align 1
  %6 = alloca ptr, align 8
  %7 = alloca %"struct.gmx::ArrayRefIter", align 8
  %8 = alloca %"struct.gmx::ArrayRefIter", align 8
  %9 = alloca %"struct.gmx::ArrayRefIter", align 8
  %10 = alloca %"struct.gmx::ArrayRefIter", align 8
  %11 = alloca ptr, align 8
  %12 = getelementptr inbounds nuw { ptr, ptr }, ptr %3, i32 0, i32 0
  store ptr %0, ptr %12, align 8
  %13 = getelementptr inbounds nuw { ptr, ptr }, ptr %3, i32 0, i32 1
  store ptr %1, ptr %13, align 8
  call void @llvm.lifetime.start.p0(i64 4, ptr %4) #20
  store i32 2, ptr %4, align 4, !tbaa !231
  call void @llvm.lifetime.start.p0(i64 1, ptr %5) #20
  store i8 0, ptr %5, align 1, !tbaa !219
  call void @llvm.lifetime.start.p0(i64 8, ptr %6) #20
  store ptr %3, ptr %6, align 8, !tbaa !82
  call void @llvm.lifetime.start.p0(i64 8, ptr %7) #20
  %14 = load ptr, ptr %6, align 8, !tbaa !82
  %15 = call ptr @_ZNK3gmx8ArrayRefIKSt10unique_ptrI17DeviceInformationSt14default_deleteIS2_EEE5beginEv(ptr noundef nonnull align 8 dereferenceable(16) %14)
  %16 = getelementptr inbounds nuw %"struct.gmx::ArrayRefIter", ptr %7, i32 0, i32 0
  store ptr %15, ptr %16, align 8
  call void @llvm.lifetime.start.p0(i64 8, ptr %8) #20
  %17 = load ptr, ptr %6, align 8, !tbaa !82
  %18 = call ptr @_ZNK3gmx8ArrayRefIKSt10unique_ptrI17DeviceInformationSt14default_deleteIS2_EEE3endEv(ptr noundef nonnull align 8 dereferenceable(16) %17)
  %19 = getelementptr inbounds nuw %"struct.gmx::ArrayRefIter", ptr %8, i32 0, i32 0
  store ptr %18, ptr %19, align 8
  br label %20

20:                                               ; preds = %41, %2
  call void @llvm.memcpy.p0.p0.i64(ptr align 8 %9, ptr align 8 %7, i64 8, i1 false)
  call void @llvm.memcpy.p0.p0.i64(ptr align 8 %10, ptr align 8 %8, i64 8, i1 false)
  %21 = getelementptr inbounds nuw %"struct.gmx::ArrayRefIter", ptr %9, i32 0, i32 0
  %22 = load ptr, ptr %21, align 8
  %23 = getelementptr inbounds nuw %"struct.gmx::ArrayRefIter", ptr %10, i32 0, i32 0
  %24 = load ptr, ptr %23, align 8
  %25 = call noundef zeroext i1 @_ZN3gmx5boost14stl_interfaces2v1neINS_12ArrayRefIterIKSt10unique_ptrI17DeviceInformationSt14default_deleteIS6_EEEESB_EEDTcmclsr6v1_dtlE16derived_iteratorfp_Enteqfp_fp0_ET_T0_(ptr %22, ptr %24) #20
  br i1 %25, label %27, label %26

26:                                               ; preds = %20
  call void @llvm.lifetime.end.p0(i64 8, ptr %8) #20
  call void @llvm.lifetime.end.p0(i64 8, ptr %7) #20
  call void @llvm.lifetime.end.p0(i64 8, ptr %6) #20
  br label %43

27:                                               ; preds = %20
  call void @llvm.lifetime.start.p0(i64 8, ptr %11) #20
  %28 = call noundef nonnull align 8 dereferenceable(8) ptr @_ZNK3gmx12ArrayRefIterIKSt10unique_ptrI17DeviceInformationSt14default_deleteIS2_EEEdeEv(ptr noundef nonnull align 8 dereferenceable(8) %7) #20
  store ptr %28, ptr %11, align 8, !tbaa !29
  %29 = load ptr, ptr %11, align 8, !tbaa !29
  %30 = call noundef ptr @_ZNKSt10unique_ptrI17DeviceInformationSt14default_deleteIS0_EEptEv(ptr noundef nonnull align 8 dereferenceable(8) %29) #20
  %31 = getelementptr inbounds nuw %struct.DeviceInformation, ptr %30, i32 0, i32 0
  %32 = load i32, ptr %31, align 8, !tbaa !31
  %33 = icmp eq i32 %32, 0
  br i1 %33, label %34, label %40

34:                                               ; preds = %27
  %35 = load ptr, ptr %11, align 8, !tbaa !29
  %36 = call noundef ptr @_ZNKSt10unique_ptrI17DeviceInformationSt14default_deleteIS0_EEptEv(ptr noundef nonnull align 8 dereferenceable(8) %35) #20
  %37 = getelementptr inbounds nuw %struct.DeviceInformation, ptr %36, i32 0, i32 5
  %38 = call noundef nonnull align 4 dereferenceable(4) ptr @_ZSt3minIN3gmx17GpuAwareMpiStatusEERKT_S4_S4_(ptr noundef nonnull align 4 dereferenceable(4) %4, ptr noundef nonnull align 4 dereferenceable(4) %37)
  %39 = load i32, ptr %38, align 4, !tbaa !231
  store i32 %39, ptr %4, align 4, !tbaa !231
  store i8 1, ptr %5, align 1, !tbaa !219
  br label %40

40:                                               ; preds = %34, %27
  call void @llvm.lifetime.end.p0(i64 8, ptr %11) #20
  br label %41

41:                                               ; preds = %40
  %42 = call noundef nonnull align 8 dereferenceable(8) ptr @_ZN3gmx5boost14stl_interfaces2v118iterator_interfaceINS_12ArrayRefIterIKSt10unique_ptrI17DeviceInformationSt14default_deleteIS6_EEEESt26random_access_iterator_tagSA_RSA_PSA_lvEppISB_EEDTcmpLclsr3stdE7declvalIRT_EEcvlLi1Eclsr3stdE7declvalISI_EEEv(ptr noundef nonnull align 1 dereferenceable(1) %7) #20
  br label %20

43:                                               ; preds = %26
  %44 = load i8, ptr %5, align 1, !tbaa !219, !range !232, !noundef !233
  %45 = trunc i8 %44 to i1
  br i1 %45, label %47, label %46

46:                                               ; preds = %43
  store i32 0, ptr %4, align 4, !tbaa !231
  br label %47

47:                                               ; preds = %46, %43
  %48 = load i32, ptr %4, align 4, !tbaa !231
  call void @llvm.lifetime.end.p0(i64 1, ptr %5) #20
  call void @llvm.lifetime.end.p0(i64 4, ptr %4) #20
  ret i32 %48
}