; Function Attrs: mustprogress nofree norecurse nosync nounwind willreturn memory(read, inaccessiblemem: none) uwtable
define noundef range(i32 -2147483648, 3) i32 @_Z36getMinimalSupportedGpuAwareMpiStatusN3gmx8ArrayRefIKSt10unique_ptrI17DeviceInformationSt14default_deleteIS2_EEEE(ptr readonly %0, ptr readnone %1) local_unnamed_addr #17 {
  %.not14 = icmp eq ptr %0, %1
  br i1 %.not14, label %._crit_edge, label %.lr.ph

._crit_edge.loopexit:                             ; preds = %10
  %3 = select i1 %.1, i32 %.113, i32 0
  br label %._crit_edge

._crit_edge:                                      ; preds = %._crit_edge.loopexit, %2
  %.0.lcssa = phi i32 [ 0, %2 ], [ %3, %._crit_edge.loopexit ]
  ret i32 %.0.lcssa

.lr.ph:                                           ; preds = %2, %10
  %.017 = phi i1 [ %.1, %10 ], [ false, %2 ]
  %.sroa.0.016 = phi ptr [ %11, %10 ], [ %0, %2 ]
  %.01215 = phi i32 [ %.113, %10 ], [ 2, %2 ]
  %4 = load ptr, ptr %.sroa.0.016, align 8, !tbaa !30
  %5 = load i32, ptr %4, align 8, !tbaa !32
  %6 = icmp eq i32 %5, 0
  br i1 %6, label %7, label %10

7:                                                ; preds = %.lr.ph
  %8 = getelementptr inbounds nuw i8, ptr %4, i64 64
  %9 = load i32, ptr %8, align 4, !tbaa !85
  %.sroa.speculated = tail call i32 @llvm.smin.i32(i32 %9, i32 %.01215)
  br label %10

10:                                               ; preds = %7, %.lr.ph
  %.113 = phi i32 [ %.sroa.speculated, %7 ], [ %.01215, %.lr.ph ]
  %.1 = phi i1 [ true, %7 ], [ %.017, %.lr.ph ]
  %11 = getelementptr inbounds nuw i8, ptr %.sroa.0.016, i64 8
  %.not = icmp eq ptr %11, %1
  br i1 %.not, label %._crit_edge.loopexit, label %.lr.ph
}